target datalayout = "e-m:e-p270:32:32-p271:32:32-p272:64:64-i64:64-i128:128-f80:128-n8:16:32:64-S128"
target triple = "x86_64-pc-linux-gnu"

%class.JvmtiTagMapKey = type { %class.WeakHandle, ptr }
%class.WeakHandle = type { ptr }
%class.JvmtiTagMapTable = type { %class.ResizeableResourceHashtable }
%class.ResizeableResourceHashtable = type { %class.ResourceHashtableBase.base, i32 }
%class.ResourceHashtableBase.base = type <{ %class.ResizeableResourceHashtableStorage, i32 }>
%class.ResizeableResourceHashtableStorage = type { i32, ptr }
%struct.RemoveAll = type { i8 }
%class.ResourceHashtableNode = type { i32, %class.JvmtiTagMapKey, i64, ptr }
%class.ResourceHashtableBase = type <{ %class.ResizeableResourceHashtableStorage, i32, [4 x i8] }>

; Function Attrs: mustprogress nounwind uwtable
define linkonce_odr hidden noundef ptr @_ZNK34ResizeableResourceHashtableStorageI14JvmtiTagMapKeylLN6AnyObj15allocation_typeE2EL8MEMFLAGS23EE5tableEv(ptr noundef nonnull align 8 dereferenceable(16) %0) #1 comdat align 2 {
  %2 = alloca ptr, align 8
  store ptr %0, ptr %2, align 8
  %3 = load ptr, ptr %2, align 8
  %4 = getelementptr inbounds %class.ResizeableResourceHashtableStorage, ptr %3, i32 0, i32 1
  %5 = load ptr, ptr %4, align 8
  ret ptr %5
}

; Function Attrs: mustprogress nounwind uwtable
define hidden void @_ZN14JvmtiTagMapKey19release_weak_handleEv(ptr noundef nonnull align 8 dereferenceable(16) %0) #1 align 2 {
  %2 = alloca ptr, align 8
  store ptr %0, ptr %2, align 8
  %3 = load ptr, ptr %2, align 8
  %4 = getelementptr inbounds %class.JvmtiTagMapKey, ptr %3, i32 0, i32 0
  %5 = call noundef ptr @_ZN11JvmtiExport16weak_tag_storageEv()
  call void @_ZN10WeakHandle7releaseEP10OopStorage(ptr noundef nonnull align 8 dereferenceable(8) %4, ptr noundef %5)
  ret void
}

; Function Attrs: mustprogress nounwind uwtable
define linkonce_odr hidden noundef i32 @_ZNK34ResizeableResourceHashtableStorageI14JvmtiTagMapKeylLN6AnyObj15allocation_typeE2EL8MEMFLAGS23EE10table_sizeEv(ptr noundef nonnull align 8 dereferenceable(16) %0) #1 comdat align 2 {
  %2 = alloca ptr, align 8
  store ptr %0, ptr %2, align 8
  %3 = load ptr, ptr %2, align 8
  %4 = getelementptr inbounds %class.ResizeableResourceHashtableStorage, ptr %3, i32 0, i32 0
  %5 = load i32, ptr %4, align 8
  ret i32 %5
}

; Function Attrs: mustprogress nounwind uwtable
define linkonce_odr hidden void @_ZN34ResizeableResourceHashtableStorageI14JvmtiTagMapKeylLN6AnyObj15allocation_typeE2EL8MEMFLAGS23EED2Ev(ptr noundef nonnull align 8 dereferenceable(16) %0) unnamed_addr #1 comdat align 2 {
  %2 = alloca ptr, align 8
  store ptr %0, ptr %2, align 8
  %3 = load ptr, ptr %2, align 8
  %4 = getelementptr inbounds %class.ResizeableResourceHashtableStorage, ptr %3, i32 0, i32 1
  %5 = load ptr, ptr %4, align 8
  call void @_Z8FreeHeapPv(ptr noundef %5)
  ret void
}

; Function Attrs: mustprogress nounwind uwtable
define linkonce_odr hidden noundef ptr @_ZNK21ResourceHashtableBaseI34ResizeableResourceHashtableStorageI14JvmtiTagMapKeylLN6AnyObj15allocation_typeE2EL8MEMFLAGS23EES1_lLS3_2ELS4_23EXadL_ZNS1_8get_hashERKS1_EEXadL_ZNS1_6equalsES7_S7_EEE5tableEv(ptr noundef nonnull align 8 dereferenceable(20) %0) #1 comdat align 2 {
  %2 = alloca ptr, align 8
  store ptr %0, ptr %2, align 8
  %3 = load ptr, ptr %2, align 8
  %4 = call noundef ptr @_ZNK34ResizeableResourceHashtableStorageI14JvmtiTagMapKeylLN6AnyObj15allocation_typeE2EL8MEMFLAGS23EE5tableEv(ptr noundef nonnull align 8 dereferenceable(16) %3)
  ret ptr %4
}

; Function Attrs: mustprogress nounwind uwtable
define internal noundef zeroext i1 @_ZZN16JvmtiTagMapTable5clearEvEN9RemoveAll8do_entryER14JvmtiTagMapKeyRKl(ptr noundef nonnull align 1 dereferenceable(1) %0, ptr noundef nonnull align 8 dereferenceable(16) %1, ptr noundef nonnull align 8 dereferenceable(8) %2) #1 align 2 {
  %4 = alloca ptr, align 8
  %5 = alloca ptr, align 8
  %6 = alloca ptr, align 8
  store ptr %0, ptr %4, align 8
  store ptr %1, ptr %5, align 8
  store ptr %2, ptr %6, align 8
  %7 = load ptr, ptr %5, align 8
  call void @_ZN14JvmtiTagMapKey19release_weak_handleEv(ptr noundef nonnull align 8 dereferenceable(16) %7)
  ret i1 true
}

; Function Attrs: mustprogress nounwind uwtable
define linkonce_odr hidden noundef ptr @_ZN21ResourceHashtableBaseI34ResizeableResourceHashtableStorageI14JvmtiTagMapKeylLN6AnyObj15allocation_typeE2EL8MEMFLAGS23EES1_lLS3_2ELS4_23EXadL_ZNS1_8get_hashERKS1_EEXadL_ZNS1_6equalsES7_S7_EEE9bucket_atEj(ptr noundef nonnull align 8 dereferenceable(20) %0, i32 noundef %1) #1 comdat align 2 {
  %3 = alloca ptr, align 8
  %4 = alloca i32, align 4
  %5 = alloca ptr, align 8
  store ptr %0, ptr %3, align 8
  store i32 %1, ptr %4, align 4
  %6 = load ptr, ptr %3, align 8
  %7 = call noundef ptr @_ZNK21ResourceHashtableBaseI34ResizeableResourceHashtableStorageI14JvmtiTagMapKeylLN6AnyObj15allocation_typeE2EL8MEMFLAGS23EES1_lLS3_2ELS4_23EXadL_ZNS1_8get_hashERKS1_EEXadL_ZNS1_6equalsES7_S7_EEE5tableEv(ptr noundef nonnull align 8 dereferenceable(20) %6)
  store ptr %7, ptr %5, align 8
  %8 = load ptr, ptr %5, align 8
  %9 = load i32, ptr %4, align 4
  %10 = zext i32 %9 to i64
  %11 = getelementptr inbounds ptr, ptr %8, i64 %10
  ret ptr %11
}

; Function Attrs: mustprogress nounwind uwtable
define linkonce_odr hidden noundef i32 @_ZNK21ResourceHashtableBaseI34ResizeableResourceHashtableStorageI14JvmtiTagMapKeylLN6AnyObj15allocation_typeE2EL8MEMFLAGS23EES1_lLS3_2ELS4_23EXadL_ZNS1_8get_hashERKS1_EEXadL_ZNS1_6equalsES7_S7_EEE10table_sizeEv(ptr noundef nonnull align 8 dereferenceable(20) %0) #1 comdat align 2 {
  %2 = alloca ptr, align 8
  store ptr %0, ptr %2, align 8
  %3 = load ptr, ptr %2, align 8
  %4 = call noundef i32 @_ZNK34ResizeableResourceHashtableStorageI14JvmtiTagMapKeylLN6AnyObj15allocation_typeE2EL8MEMFLAGS23EE10table_sizeEv(ptr noundef nonnull align 8 dereferenceable(16) %3)
  ret i32 %4
}

; Function Attrs: mustprogress nounwind uwtable
define linkonce_odr hidden void @_ZN21ResourceHashtableBaseI34ResizeableResourceHashtableStorageI14JvmtiTagMapKeylLN6AnyObj15allocation_typeE2EL8MEMFLAGS23EES1_lLS3_2ELS4_23EXadL_ZNS1_8get_hashERKS1_EEXadL_ZNS1_6equalsES7_S7_EEED2Ev(ptr noundef nonnull align 8 dereferenceable(20) %0) unnamed_addr #1 comdat align 2 {
  %2 = alloca ptr, align 8
  %3 = alloca ptr, align 8
  %4 = alloca i32, align 4
  %5 = alloca ptr, align 8
  %6 = alloca ptr, align 8
  store ptr %0, ptr %2, align 8
  %7 = load ptr, ptr %2, align 8
  %8 = call noundef ptr @_ZNK21ResourceHashtableBaseI34ResizeableResourceHashtableStorageI14JvmtiTagMapKeylLN6AnyObj15allocation_typeE2EL8MEMFLAGS23EES1_lLS3_2ELS4_23EXadL_ZNS1_8get_hashERKS1_EEXadL_ZNS1_6equalsES7_S7_EEE5tableEv(ptr noundef nonnull align 8 dereferenceable(20) %7)
  store ptr %8, ptr %3, align 8
  %9 = call noundef i32 @_ZNK21ResourceHashtableBaseI34ResizeableResourceHashtableStorageI14JvmtiTagMapKeylLN6AnyObj15allocation_typeE2EL8MEMFLAGS23EES1_lLS3_2ELS4_23EXadL_ZNS1_8get_hashERKS1_EEXadL_ZNS1_6equalsES7_S7_EEE10table_sizeEv(ptr noundef nonnull align 8 dereferenceable(20) %7)
  store i32 %9, ptr %4, align 4
  br label %10

10:                                               ; preds = %30, %1
  %11 = load ptr, ptr %3, align 8
  %12 = load i32, ptr %4, align 4
  %13 = call noundef ptr @_ZN21ResourceHashtableBaseI34ResizeableResourceHashtableStorageI14JvmtiTagMapKeylLN6AnyObj15allocation_typeE2EL8MEMFLAGS23EES1_lLS3_2ELS4_23EXadL_ZNS1_8get_hashERKS1_EEXadL_ZNS1_6equalsES7_S7_EEE9bucket_atEj(ptr noundef nonnull align 8 dereferenceable(20) %7, i32 noundef %12)
  %14 = icmp ult ptr %11, %13
  br i1 %14, label %15, label %33

15:                                               ; preds = %10
  %16 = load ptr, ptr %3, align 8
  %17 = load ptr, ptr %16, align 8
  store ptr %17, ptr %5, align 8
  br label %18

18:                                               ; preds = %29, %15
  %19 = load ptr, ptr %5, align 8
  %20 = icmp ne ptr %19, null
  br i1 %20, label %21, label %30

21:                                               ; preds = %18
  %22 = load ptr, ptr %5, align 8
  store ptr %22, ptr %6, align 8
  %23 = load ptr, ptr %5, align 8
  %24 = getelementptr inbounds %class.ResourceHashtableNode, ptr %23, i32 0, i32 3
  %25 = load ptr, ptr %24, align 8
  store ptr %25, ptr %5, align 8
  %26 = load ptr, ptr %6, align 8
  %27 = icmp eq ptr %26, null
  br i1 %27, label %29, label %28

28:                                               ; preds = %21
  call void @_ZN6AnyObjdlEPv(ptr noundef %26) #9
  br label %29

29:                                               ; preds = %28, %21
  br label %18, !llvm.loop !16

30:                                               ; preds = %18
  %31 = load ptr, ptr %3, align 8
  %32 = getelementptr inbounds ptr, ptr %31, i32 1
  store ptr %32, ptr %3, align 8
  br label %10, !llvm.loop !17

33:                                               ; preds = %10
  call void @_ZN34ResizeableResourceHashtableStorageI14JvmtiTagMapKeylLN6AnyObj15allocation_typeE2EL8MEMFLAGS23EED2Ev(ptr noundef nonnull align 8 dereferenceable(16) %7) #9
  ret void
}

; Function Attrs: mustprogress nounwind uwtable
define internal void @_ZN21ResourceHashtableBaseI34ResizeableResourceHashtableStorageI14JvmtiTagMapKeylLN6AnyObj15allocation_typeE2EL8MEMFLAGS23EES1_lLS3_2ELS4_23EXadL_ZNS1_8get_hashERKS1_EEXadL_ZNS1_6equalsES7_S7_EEE6unlinkIZN16JvmtiTagMapTable5clearEvE9RemoveAllEEvPT_(ptr noundef nonnull align 8 dereferenceable(20) %0, ptr noundef %1) #1 align 2 {
  %3 = alloca ptr, align 8
  %4 = alloca ptr, align 8
  %5 = alloca i32, align 4
  %6 = alloca i32, align 4
  %7 = alloca ptr, align 8
  %8 = alloca ptr, align 8
  %9 = alloca i8, align 1
  store ptr %0, ptr %3, align 8
  store ptr %1, ptr %4, align 8
  %10 = load ptr, ptr %3, align 8
  %11 = call noundef i32 @_ZNK21ResourceHashtableBaseI34ResizeableResourceHashtableStorageI14JvmtiTagMapKeylLN6AnyObj15allocation_typeE2EL8MEMFLAGS23EES1_lLS3_2ELS4_23EXadL_ZNS1_8get_hashERKS1_EEXadL_ZNS1_6equalsES7_S7_EEE10table_sizeEv(ptr noundef nonnull align 8 dereferenceable(20) %10)
  store i32 %11, ptr %5, align 4
  store i32 0, ptr %6, align 4
  br label %12

12:                                               ; preds = %52, %2
  %13 = load i32, ptr %6, align 4
  %14 = load i32, ptr %5, align 4
  %15 = icmp ult i32 %13, %14
  br i1 %15, label %16, label %55

16:                                               ; preds = %12
  %17 = load i32, ptr %6, align 4
  %18 = call noundef ptr @_ZN21ResourceHashtableBaseI34ResizeableResourceHashtableStorageI14JvmtiTagMapKeylLN6AnyObj15allocation_typeE2EL8MEMFLAGS23EES1_lLS3_2ELS4_23EXadL_ZNS1_8get_hashERKS1_EEXadL_ZNS1_6equalsES7_S7_EEE9bucket_atEj(ptr noundef nonnull align 8 dereferenceable(20) %10, i32 noundef %17)
  store ptr %18, ptr %7, align 8
  br label %19

19:                                               ; preds = %50, %16
  %20 = load ptr, ptr %7, align 8
  %21 = load ptr, ptr %20, align 8
  %22 = icmp ne ptr %21, null
  br i1 %22, label %23, label %51

23:                                               ; preds = %19
  %24 = load ptr, ptr %7, align 8
  %25 = load ptr, ptr %24, align 8
  store ptr %25, ptr %8, align 8
  %26 = load ptr, ptr %4, align 8
  %27 = load ptr, ptr %8, align 8
  %28 = getelementptr inbounds %class.ResourceHashtableNode, ptr %27, i32 0, i32 1
  %29 = load ptr, ptr %8, align 8
  %30 = getelementptr inbounds %class.ResourceHashtableNode, ptr %29, i32 0, i32 2
  %31 = call noundef zeroext i1 @_ZZN16JvmtiTagMapTable5clearEvEN9RemoveAll8do_entryER14JvmtiTagMapKeyRKl(ptr noundef nonnull align 1 dereferenceable(1) %26, ptr noundef nonnull align 8 dereferenceable(16) %28, ptr noundef nonnull align 8 dereferenceable(8) %30)
  %32 = zext i1 %31 to i8
  store i8 %32, ptr %9, align 1
  %33 = load i8, ptr %9, align 1
  %34 = trunc i8 %33 to i1
  br i1 %34, label %35, label %47

35:                                               ; preds = %23
  %36 = load ptr, ptr %8, align 8
  %37 = getelementptr inbounds %class.ResourceHashtableNode, ptr %36, i32 0, i32 3
  %38 = load ptr, ptr %37, align 8
  %39 = load ptr, ptr %7, align 8
  store ptr %38, ptr %39, align 8
  %40 = load ptr, ptr %8, align 8
  %41 = icmp eq ptr %40, null
  br i1 %41, label %43, label %42

42:                                               ; preds = %35
  call void @_ZN6AnyObjdlEPv(ptr noundef %40) #9
  br label %43

43:                                               ; preds = %42, %35
  %44 = getelementptr inbounds %class.ResourceHashtableBase, ptr %10, i32 0, i32 1
  %45 = load i32, ptr %44, align 8
  %46 = add nsw i32 %45, -1
  store i32 %46, ptr %44, align 8
  br label %50

47:                                               ; preds = %23
  %48 = load ptr, ptr %8, align 8
  %49 = getelementptr inbounds %class.ResourceHashtableNode, ptr %48, i32 0, i32 3
  store ptr %49, ptr %7, align 8
  br label %50

50:                                               ; preds = %47, %43
  br label %19, !llvm.loop !6

51:                                               ; preds = %19
  br label %52

52:                                               ; preds = %51
  %53 = load i32, ptr %6, align 4
  %54 = add i32 %53, 1
  store i32 %54, ptr %6, align 4
  br label %12, !llvm.loop !8

55:                                               ; preds = %12
  ret void
}

; Function Attrs: mustprogress nounwind uwtable
define linkonce_odr hidden void @_ZN27ResizeableResourceHashtableI14JvmtiTagMapKeylLN6AnyObj15allocation_typeE2EL8MEMFLAGS23EXadL_ZNS0_8get_hashERKS0_EEXadL_ZNS0_6equalsES5_S5_EEED2Ev(ptr noundef nonnull align 8 dereferenceable(24) %0) unnamed_addr #1 comdat align 2 {
  %2 = alloca ptr, align 8
  store ptr %0, ptr %2, align 8
  %3 = load ptr, ptr %2, align 8
  call void @_ZN21ResourceHashtableBaseI34ResizeableResourceHashtableStorageI14JvmtiTagMapKeylLN6AnyObj15allocation_typeE2EL8MEMFLAGS23EES1_lLS3_2ELS4_23EXadL_ZNS1_8get_hashERKS1_EEXadL_ZNS1_6equalsES7_S7_EEED2Ev(ptr noundef nonnull align 8 dereferenceable(20) %3) #9
  ret void
}

; Function Attrs: mustprogress nounwind uwtable
define hidden void @_ZN16JvmtiTagMapTable5clearEv(ptr noundef nonnull align 8 dereferenceable(24) %0) #1 align 2 {
  %2 = alloca ptr, align 8
  %3 = alloca %struct.RemoveAll, align 1
  store ptr %0, ptr %2, align 8
  %4 = load ptr, ptr %2, align 8
  %5 = getelementptr inbounds %class.JvmtiTagMapTable, ptr %4, i32 0, i32 0
  call void @_ZN21ResourceHashtableBaseI34ResizeableResourceHashtableStorageI14JvmtiTagMapKeylLN6AnyObj15allocation_typeE2EL8MEMFLAGS23EES1_lLS3_2ELS4_23EXadL_ZNS1_8get_hashERKS1_EEXadL_ZNS1_6equalsES7_S7_EEE6unlinkIZN16JvmtiTagMapTable5clearEvE9RemoveAllEEvPT_(ptr noundef nonnull align 8 dereferenceable(20) %5, ptr noundef %3)
  ret void
}

; Function Attrs: mustprogress nounwind uwtable
define hidden void @_ZN16JvmtiTagMapTableD2Ev(ptr noundef nonnull align 8 dereferenceable(24) %0) unnamed_addr #1 align 2 {
  %2 = alloca ptr, align 8
  store ptr %0, ptr %2, align 8
  %3 = load ptr, ptr %2, align 8
  call void @_ZN16JvmtiTagMapTable5clearEv(ptr noundef nonnull align 8 dereferenceable(24) %3)
  %4 = getelementptr inbounds %class.JvmtiTagMapTable, ptr %3, i32 0, i32 0
  call void @_ZN27ResizeableResourceHashtableI14JvmtiTagMapKeylLN6AnyObj15allocation_typeE2EL8MEMFLAGS23EXadL_ZNS0_8get_hashERKS0_EEXadL_ZNS0_6equalsES5_S5_EEED2Ev(ptr noundef nonnull align 8 dereferenceable(24) %4) #9
  ret void
}