; Function Attrs: mustprogress nounwind uwtable
define hidden void @_ZN16JvmtiTagMapTableD2Ev(ptr nocapture noundef nonnull align 8 dereferenceable(24) %0) unnamed_addr #1 align 2 {
  %2 = load i32, ptr %0, align 8
  %.not6.i.i = icmp eq i32 %2, 0
  %3 = getelementptr inbounds i8, ptr %0, i64 8
  br i1 %.not6.i.i, label %_ZN16JvmtiTagMapTable5clearEv.exit.thread, label %.lr.ph4.i.i

_ZN16JvmtiTagMapTable5clearEv.exit.thread:        ; preds = %1
  %4 = load ptr, ptr %3, align 8
  br label %_ZN27ResizeableResourceHashtableI14JvmtiTagMapKeylLN6AnyObj15allocation_typeE2EL8MEMFLAGS23EXadL_ZNS0_8get_hashERKS0_EEXadL_ZNS0_6equalsES5_S5_EEED2Ev.exit

.lr.ph4.i.i:                                      ; preds = %1
  %5 = getelementptr inbounds i8, ptr %0, i64 16
  %wide.trip.count.i.i = zext i32 %2 to i64
  br label %6

6:                                                ; preds = %._crit_edge.i.i, %.lr.ph4.i.i
  %indvars.iv.i.i = phi i64 [ 0, %.lr.ph4.i.i ], [ %indvars.iv.next.i.i, %._crit_edge.i.i ]
  %7 = load ptr, ptr %3, align 8
  %8 = getelementptr inbounds ptr, ptr %7, i64 %indvars.iv.i.i
  %9 = load ptr, ptr %8, align 8
  %.not1.i.i = icmp eq ptr %9, null
  br i1 %.not1.i.i, label %._crit_edge.i.i, label %.lr.ph.i.i

.lr.ph.i.i:                                       ; preds = %6, %.lr.ph.i.i
  %10 = phi ptr [ %17, %.lr.ph.i.i ], [ %9, %6 ]
  %11 = getelementptr inbounds i8, ptr %10, i64 8
  %12 = tail call noundef ptr @_ZN11JvmtiExport16weak_tag_storageEv() #11
  tail call void @_ZN10WeakHandle7releaseEP10OopStorage(ptr noundef nonnull align 8 dereferenceable(8) %11, ptr noundef %12) #11
  %13 = getelementptr inbounds i8, ptr %10, i64 32
  %14 = load ptr, ptr %13, align 8
  store ptr %14, ptr %8, align 8
  tail call void @_ZN6AnyObjdlEPv(ptr noundef nonnull %10) #11
  %15 = load i32, ptr %5, align 8
  %16 = add nsw i32 %15, -1
  store i32 %16, ptr %5, align 8
  %17 = load ptr, ptr %8, align 8
  %.not.i.i = icmp eq ptr %17, null
  br i1 %.not.i.i, label %._crit_edge.i.i, label %.lr.ph.i.i, !llvm.loop !6

._crit_edge.i.i:                                  ; preds = %.lr.ph.i.i, %6
  %indvars.iv.next.i.i = add nuw nsw i64 %indvars.iv.i.i, 1
  %exitcond.not.i.i = icmp eq i64 %indvars.iv.next.i.i, %wide.trip.count.i.i
  br i1 %exitcond.not.i.i, label %_ZN16JvmtiTagMapTable5clearEv.exit, label %6, !llvm.loop !8

_ZN16JvmtiTagMapTable5clearEv.exit:               ; preds = %._crit_edge.i.i
  %.pr = load i32, ptr %0, align 8
  %18 = load ptr, ptr %3, align 8
  %19 = zext i32 %.pr to i64
  %.not15.i.i = icmp eq i32 %.pr, 0
  br i1 %.not15.i.i, label %_ZN27ResizeableResourceHashtableI14JvmtiTagMapKeylLN6AnyObj15allocation_typeE2EL8MEMFLAGS23EXadL_ZNS0_8get_hashERKS0_EEXadL_ZNS0_6equalsES5_S5_EEED2Ev.exit, label %.lr.ph13.i.i

.lr.ph13.i.i:                                     ; preds = %_ZN16JvmtiTagMapTable5clearEv.exit, %._crit_edge.i.i3
  %20 = phi ptr [ %24, %._crit_edge.i.i3 ], [ %18, %_ZN16JvmtiTagMapTable5clearEv.exit ]
  %.011.i.i = phi ptr [ %25, %._crit_edge.i.i3 ], [ %18, %_ZN16JvmtiTagMapTable5clearEv.exit ]
  %21 = load ptr, ptr %.011.i.i, align 8
  %.not9.i.i = icmp eq ptr %21, null
  br i1 %.not9.i.i, label %._crit_edge.i.i3, label %.lr.ph.i.i1

.lr.ph.i.i1:                                      ; preds = %.lr.ph13.i.i, %.lr.ph.i.i1
  %.0810.i.i = phi ptr [ %23, %.lr.ph.i.i1 ], [ %21, %.lr.ph13.i.i ]
  %22 = getelementptr inbounds i8, ptr %.0810.i.i, i64 32
  %23 = load ptr, ptr %22, align 8
  tail call void @_ZN6AnyObjdlEPv(ptr noundef nonnull %.0810.i.i) #11
  %.not.i.i2 = icmp eq ptr %23, null
  br i1 %.not.i.i2, label %._crit_edge.loopexit.i.i, label %.lr.ph.i.i1, !llvm.loop !9

._crit_edge.loopexit.i.i:                         ; preds = %.lr.ph.i.i1
  %.pre.i.i = load ptr, ptr %3, align 8
  br label %._crit_edge.i.i3

._crit_edge.i.i3:                                 ; preds = %._crit_edge.loopexit.i.i, %.lr.ph13.i.i
  %24 = phi ptr [ %.pre.i.i, %._crit_edge.loopexit.i.i ], [ %20, %.lr.ph13.i.i ]
  %25 = getelementptr inbounds i8, ptr %.011.i.i, i64 8
  %26 = getelementptr inbounds ptr, ptr %24, i64 %19
  %27 = icmp ult ptr %25, %26
  br i1 %27, label %.lr.ph13.i.i, label %_ZN27ResizeableResourceHashtableI14JvmtiTagMapKeylLN6AnyObj15allocation_typeE2EL8MEMFLAGS23EXadL_ZNS0_8get_hashERKS0_EEXadL_ZNS0_6equalsES5_S5_EEED2Ev.exit, !llvm.loop !10

_ZN27ResizeableResourceHashtableI14JvmtiTagMapKeylLN6AnyObj15allocation_typeE2EL8MEMFLAGS23EXadL_ZNS0_8get_hashERKS0_EEXadL_ZNS0_6equalsES5_S5_EEED2Ev.exit: ; preds = %._crit_edge.i.i3, %_ZN16JvmtiTagMapTable5clearEv.exit.thread, %_ZN16JvmtiTagMapTable5clearEv.exit
  %.lcssa.i.i = phi ptr [ %18, %_ZN16JvmtiTagMapTable5clearEv.exit ], [ %4, %_ZN16JvmtiTagMapTable5clearEv.exit.thread ], [ %24, %._crit_edge.i.i3 ]
  tail call void @_Z8FreeHeapPv(ptr noundef %.lcssa.i.i) #11
  ret void
}